; Function Attrs: mustprogress nounwind uwtable
define internal fastcc void @_ZN6hermes12_GLOBAL__N_15GenJS5visitEPNS_6ESTree23ExpressionStatementNodeE(ptr noundef nonnull align 8 captures(none) dereferenceable(16) %this, ptr noundef readonly %node) unnamed_addr #0 align 2 {
entry:
  %_expression = getelementptr inbounds nuw i8, ptr %node, i64 48
  %0 = load ptr, ptr %_expression, align 8
  %tobool.not.i = icmp eq ptr %0, null
  br i1 %tobool.not.i, label %_ZN6hermes12_GLOBAL__N_15GenJS10printChildEPNS_6ESTree4NodeES4_NS0_8ChildPosE.exit, label %if.end.i

if.end.i:                                         ; preds = %entry
  %1 = getelementptr inbounds nuw i8, ptr %this, i64 8
  %this.val.i = load i8, ptr %1, align 8
  %call.i = tail call fastcc noundef i32 @_ZN6hermes12_GLOBAL__N_15GenJS10needParensEPNS_6ESTree4NodeES4_NS0_8ChildPosE(i8 %this.val.i, ptr noundef nonnull %node, ptr noundef nonnull %0, i32 noundef 1)
  switch i32 %call.i, label %if.end6.i.thread [
    i32 1, label %if.then.i
    i32 2, label %if.then3.i
  ]

if.then.i:                                        ; preds = %if.end.i
  %2 = load ptr, ptr %this, align 8
  %OutBufCur.i.i = getelementptr inbounds nuw i8, ptr %2, i64 24
  %3 = load ptr, ptr %OutBufCur.i.i, align 8
  %OutBufEnd.i.i = getelementptr inbounds nuw i8, ptr %2, i64 16
  %4 = load ptr, ptr %OutBufEnd.i.i, align 8
  %cmp.not.i.i = icmp ult ptr %3, %4
  br i1 %cmp.not.i.i, label %if.end.i.i, label %if.then.i.i

if.then.i.i:                                      ; preds = %if.then.i
  %call.i.i = tail call noundef nonnull align 8 dereferenceable(36) ptr @_ZN4llvh11raw_ostream5writeEh(ptr noundef nonnull align 8 dereferenceable(36) %2, i8 noundef zeroext 40) #12
  br label %if.then8.i

if.end.i.i:                                       ; preds = %if.then.i
  %incdec.ptr.i.i = getelementptr inbounds nuw i8, ptr %3, i64 1
  store ptr %incdec.ptr.i.i, ptr %OutBufCur.i.i, align 8
  store i8 40, ptr %3, align 1
  br label %if.then8.i

if.then3.i:                                       ; preds = %if.end.i
  %5 = load ptr, ptr %this, align 8
  %OutBufCur.i3.i = getelementptr inbounds nuw i8, ptr %5, i64 24
  %6 = load ptr, ptr %OutBufCur.i3.i, align 8
  %OutBufEnd.i4.i = getelementptr inbounds nuw i8, ptr %5, i64 16
  %7 = load ptr, ptr %OutBufEnd.i4.i, align 8
  %cmp.not.i5.i = icmp ult ptr %6, %7
  br i1 %cmp.not.i5.i, label %if.end.i9.i, label %if.then.i6.i

if.then.i6.i:                                     ; preds = %if.then3.i
  %call.i7.i = tail call noundef nonnull align 8 dereferenceable(36) ptr @_ZN4llvh11raw_ostream5writeEh(ptr noundef nonnull align 8 dereferenceable(36) %5, i8 noundef zeroext 32) #12
  br label %if.end6.i.thread

if.end.i9.i:                                      ; preds = %if.then3.i
  %incdec.ptr.i10.i = getelementptr inbounds nuw i8, ptr %6, i64 1
  store ptr %incdec.ptr.i10.i, ptr %OutBufCur.i3.i, align 8
  store i8 32, ptr %6, align 1
  br label %if.end6.i.thread

if.end6.i.thread:                                 ; preds = %if.end.i, %if.then.i6.i, %if.end.i9.i
  tail call fastcc void @_ZN6hermes6ESTree24RecursiveVisitorDispatchINS_12_GLOBAL__N_15GenJSELb1EE5visitERS3_PNS0_4NodeES7_(ptr noundef nonnull align 8 dereferenceable(16) %this, ptr noundef nonnull %0)
  br label %_ZN6hermes12_GLOBAL__N_15GenJS10printChildEPNS_6ESTree4NodeES4_NS0_8ChildPosE.exit

if.then8.i:                                       ; preds = %if.end.i.i, %if.then.i.i
  tail call fastcc void @_ZN6hermes6ESTree24RecursiveVisitorDispatchINS_12_GLOBAL__N_15GenJSELb1EE5visitERS3_PNS0_4NodeES7_(ptr noundef nonnull align 8 dereferenceable(16) %this, ptr noundef nonnull %0)
  %8 = load ptr, ptr %this, align 8
  %OutBufCur.i13.i = getelementptr inbounds nuw i8, ptr %8, i64 24
  %9 = load ptr, ptr %OutBufCur.i13.i, align 8
  %OutBufEnd.i14.i = getelementptr inbounds nuw i8, ptr %8, i64 16
  %10 = load ptr, ptr %OutBufEnd.i14.i, align 8
  %cmp.not.i15.i = icmp ult ptr %9, %10
  br i1 %cmp.not.i15.i, label %if.end.i19.i, label %if.then.i16.i

if.then.i16.i:                                    ; preds = %if.then8.i
  %call.i17.i = tail call noundef nonnull align 8 dereferenceable(36) ptr @_ZN4llvh11raw_ostream5writeEh(ptr noundef nonnull align 8 dereferenceable(36) %8, i8 noundef zeroext 41) #12
  br label %_ZN6hermes12_GLOBAL__N_15GenJS10printChildEPNS_6ESTree4NodeES4_NS0_8ChildPosE.exit

if.end.i19.i:                                     ; preds = %if.then8.i
  %incdec.ptr.i20.i = getelementptr inbounds nuw i8, ptr %9, i64 1
  store ptr %incdec.ptr.i20.i, ptr %OutBufCur.i13.i, align 8
  store i8 41, ptr %9, align 1
  br label %_ZN6hermes12_GLOBAL__N_15GenJS10printChildEPNS_6ESTree4NodeES4_NS0_8ChildPosE.exit

_ZN6hermes12_GLOBAL__N_15GenJS10printChildEPNS_6ESTree4NodeES4_NS0_8ChildPosE.exit: ; preds = %if.end6.i.thread, %if.end.i19.i, %if.then.i16.i, %entry
  ret void
}